; Function Attrs: mustprogress nofree norecurse nosync nounwind willreturn memory(argmem: readwrite) uwtable
define dso_local void @fill_stat_data(ptr noundef writeonly captures(none) initializes((0, 36)) %0, ptr noundef readonly captures(none) %1) local_unnamed_addr #0 {
  %3 = getelementptr inbounds nuw i8, ptr %1, i64 104
  %4 = load i64, ptr %3, align 8, !tbaa !4
  %5 = trunc i64 %4 to i32
  store i32 %5, ptr %0, align 4, !tbaa !11
  %6 = getelementptr inbounds nuw i8, ptr %1, i64 88
  %7 = load i64, ptr %6, align 8, !tbaa !14
  %8 = trunc i64 %7 to i32
  %9 = getelementptr inbounds nuw i8, ptr %0, i64 8
  store i32 %8, ptr %9, align 4, !tbaa !15
  %10 = getelementptr inbounds nuw i8, ptr %1, i64 112
  %11 = load i64, ptr %10, align 8, !tbaa !16
  %12 = trunc i64 %11 to i32
  %13 = getelementptr inbounds nuw i8, ptr %0, i64 4
  store i32 %12, ptr %13, align 4, !tbaa !17
  %14 = getelementptr inbounds nuw i8, ptr %1, i64 96
  %15 = load i64, ptr %14, align 8, !tbaa !18
  %16 = trunc i64 %15 to i32
  %17 = getelementptr inbounds nuw i8, ptr %0, i64 12
  store i32 %16, ptr %17, align 4, !tbaa !19
  %18 = load i64, ptr %1, align 8, !tbaa !20
  %19 = trunc i64 %18 to i32
  %20 = getelementptr inbounds nuw i8, ptr %0, i64 16
  store i32 %19, ptr %20, align 4, !tbaa !21
  %21 = getelementptr inbounds nuw i8, ptr %1, i64 8
  %22 = load i64, ptr %21, align 8, !tbaa !22
  %23 = trunc i64 %22 to i32
  %24 = getelementptr inbounds nuw i8, ptr %0, i64 20
  store i32 %23, ptr %24, align 4, !tbaa !23
  %25 = getelementptr inbounds nuw i8, ptr %1, i64 28
  %26 = load i32, ptr %25, align 4, !tbaa !24
  %27 = getelementptr inbounds nuw i8, ptr %0, i64 24
  store i32 %26, ptr %27, align 4, !tbaa !25
  %28 = getelementptr inbounds nuw i8, ptr %1, i64 32
  %29 = load i32, ptr %28, align 8, !tbaa !26
  %30 = getelementptr inbounds nuw i8, ptr %0, i64 28
  store i32 %29, ptr %30, align 4, !tbaa !27
  %31 = getelementptr inbounds nuw i8, ptr %1, i64 48
  %32 = load i64, ptr %31, align 8, !tbaa !28
  %33 = trunc i64 %32 to i32
  %34 = icmp eq i32 %33, 0
  %35 = icmp ne i64 %32, 0
  %or.cond.i = and i1 %35, %34
  %..i = select i1 %or.cond.i, i32 -2147483648, i32 %33
  %36 = getelementptr inbounds nuw i8, ptr %0, i64 32
  store i32 %..i, ptr %36, align 4, !tbaa !29
  ret void
}